target datalayout = "e-m:e-p270:32:32-p271:32:32-p272:64:64-i64:64-i128:128-f80:128-n8:16:32:64-S128"
target triple = "x86_64-pc-linux-gnu"

@lineCount = internal global i32 0, align 4

; Function Attrs: nounwind uwtable
define internal signext i8 @isNewline(i32 noundef %0) #0 {
  %2 = alloca i8, align 1
  %3 = alloca i32, align 4
  store i32 %0, ptr %3, align 4, !tbaa !4
  %4 = load i32, ptr %3, align 4, !tbaa !4
  switch i32 %4, label %9 [
    i32 10, label %5
    i32 8233, label %5
    i32 13, label %8
  ]

5:                                                ; preds = %1, %1
  %6 = load i32, ptr @lineCount, align 4, !tbaa !4
  %7 = add nsw i32 %6, 1
  store i32 %7, ptr @lineCount, align 4, !tbaa !4
  br label %8

8:                                                ; preds = %1, %5
  store i8 1, ptr %2, align 1
  br label %10

9:                                                ; preds = %1
  store i8 0, ptr %2, align 1
  br label %10

10:                                               ; preds = %9, %8
  %11 = load i8, ptr %2, align 1
  ret i8 %11
}

; Function Attrs: nounwind uwtable
define internal void @seekUntilNewline(ptr noundef %0, ptr noundef %1, ptr noundef %2) #0 {
  %4 = alloca ptr, align 8
  %5 = alloca ptr, align 8
  %6 = alloca ptr, align 8
  %7 = alloca i32, align 4
  %8 = alloca i32, align 4
  store ptr %0, ptr %4, align 8, !tbaa !8
  store ptr %1, ptr %5, align 8, !tbaa !11
  store ptr %2, ptr %6, align 8, !tbaa !15
  call void @llvm.lifetime.start.p0(i64 4, ptr %7) #4
  %9 = load ptr, ptr %6, align 8, !tbaa !15
  %10 = load i32, ptr %9, align 4, !tbaa !4
  %11 = icmp sgt i32 %10, 0
  br i1 %11, label %12, label %13

12:                                               ; preds = %3
  store i32 1, ptr %8, align 4
  br label %39

13:                                               ; preds = %3
  br label %14

14:                                               ; preds = %36, %13
  %15 = load ptr, ptr %4, align 8, !tbaa !8
  %16 = load ptr, ptr %6, align 8, !tbaa !15
  %17 = call i32 @ucbuf_getc(ptr noundef %15, ptr noundef %16)
  store i32 %17, ptr %7, align 4, !tbaa !4
  %18 = load ptr, ptr %5, align 8, !tbaa !11
  %19 = icmp ne ptr %18, null
  br i1 %19, label %20, label %24

20:                                               ; preds = %14
  %21 = load ptr, ptr %5, align 8, !tbaa !11
  %22 = load i32, ptr %7, align 4, !tbaa !4
  %23 = load ptr, ptr %6, align 8, !tbaa !15
  call void @ustr_u32cat(ptr noundef %21, i32 noundef %22, ptr noundef %23)
  br label %24

24:                                               ; preds = %20, %14
  br label %25

25:                                               ; preds = %24
  %26 = load i32, ptr %7, align 4, !tbaa !4
  %27 = call signext i8 @isNewline(i32 noundef %26)
  %28 = icmp ne i8 %27, 0
  br i1 %28, label %36, label %29

29:                                               ; preds = %25
  %30 = load i32, ptr %7, align 4, !tbaa !4
  %31 = icmp ne i32 %30, -1
  br i1 %31, label %32, label %36

32:                                               ; preds = %29
  %33 = load ptr, ptr %6, align 8, !tbaa !15
  %34 = load i32, ptr %33, align 4, !tbaa !4
  %35 = icmp eq i32 %34, 0
  br label %36

36:                                               ; preds = %32, %29, %25
  %37 = phi i1 [ false, %29 ], [ false, %25 ], [ %35, %32 ]
  br i1 %37, label %14, label %38, !llvm.loop !23

38:                                               ; preds = %36
  store i32 0, ptr %8, align 4
  br label %39

39:                                               ; preds = %38, %12
  call void @llvm.lifetime.end.p0(i64 4, ptr %7) #4
  %40 = load i32, ptr %8, align 4
  switch i32 %40, label %42 [
    i32 0, label %41
    i32 1, label %41
  ]

41:                                               ; preds = %39, %39
  ret void

42:                                               ; preds = %39
  unreachable
}

; Function Attrs: nounwind uwtable
define internal signext i8 @isWhitespace(i32 noundef %0) #0 {
  %2 = alloca i8, align 1
  %3 = alloca i32, align 4
  store i32 %0, ptr %3, align 4, !tbaa !4
  %4 = load i32, ptr %3, align 4, !tbaa !4
  switch i32 %4, label %9 [
    i32 10, label %5
    i32 8233, label %5
    i32 13, label %8
    i32 32, label %8
    i32 9, label %8
    i32 65279, label %8
  ]

5:                                                ; preds = %1, %1
  %6 = load i32, ptr @lineCount, align 4, !tbaa !4
  %7 = add nsw i32 %6, 1
  store i32 %7, ptr @lineCount, align 4, !tbaa !4
  br label %8

8:                                                ; preds = %1, %1, %1, %1, %5
  store i8 1, ptr %2, align 1
  br label %10

9:                                                ; preds = %1
  store i8 0, ptr %2, align 1
  br label %10

10:                                               ; preds = %9, %8
  %11 = load i8, ptr %2, align 1
  ret i8 %11
}

; Function Attrs: nounwind uwtable
define internal i32 @getNextChar(ptr noundef %0, i8 noundef signext %1, ptr noundef %2, ptr noundef %3) #0 {
  %5 = alloca i32, align 4
  %6 = alloca ptr, align 8
  %7 = alloca i8, align 1
  %8 = alloca ptr, align 8
  %9 = alloca ptr, align 8
  %10 = alloca i32, align 4
  %11 = alloca i32, align 4
  %12 = alloca i32, align 4
  store ptr %0, ptr %6, align 8, !tbaa !8
  store i8 %1, ptr %7, align 1, !tbaa !16
  store ptr %2, ptr %8, align 8, !tbaa !11
  store ptr %3, ptr %9, align 8, !tbaa !15
  call void @llvm.lifetime.start.p0(i64 4, ptr %10) #4
  call void @llvm.lifetime.start.p0(i64 4, ptr %11) #4
  %13 = load ptr, ptr %9, align 8, !tbaa !15
  %14 = load i32, ptr %13, align 4, !tbaa !4
  %15 = icmp sgt i32 %14, 0
  br i1 %15, label %16, label %17

16:                                               ; preds = %4
  store i32 -1, ptr %5, align 4
  store i32 1, ptr %12, align 4
  br label %72

17:                                               ; preds = %4
  br label %18

18:                                               ; preds = %71, %34, %17
  %19 = load ptr, ptr %6, align 8, !tbaa !8
  %20 = load ptr, ptr %9, align 8, !tbaa !15
  %21 = call i32 @ucbuf_getc(ptr noundef %19, ptr noundef %20)
  store i32 %21, ptr %10, align 4, !tbaa !4
  %22 = load i32, ptr %10, align 4, !tbaa !4
  %23 = icmp eq i32 %22, -1
  br i1 %23, label %24, label %25

24:                                               ; preds = %18
  store i32 -1, ptr %5, align 4
  store i32 1, ptr %12, align 4
  br label %72

25:                                               ; preds = %18
  %26 = load i8, ptr %7, align 1, !tbaa !16
  %27 = sext i8 %26 to i32
  %28 = icmp ne i32 %27, 0
  br i1 %28, label %29, label %35

29:                                               ; preds = %25
  %30 = load i32, ptr %10, align 4, !tbaa !4
  %31 = call signext i8 @isWhitespace(i32 noundef %30)
  %32 = sext i8 %31 to i32
  %33 = icmp ne i32 %32, 0
  br i1 %33, label %34, label %35

34:                                               ; preds = %29
  br label %18

35:                                               ; preds = %29, %25
  %36 = load i32, ptr %10, align 4, !tbaa !4
  %37 = icmp ne i32 %36, 47
  br i1 %37, label %38, label %40

38:                                               ; preds = %35
  %39 = load i32, ptr %10, align 4, !tbaa !4
  store i32 %39, ptr %5, align 4
  store i32 1, ptr %12, align 4
  br label %72

40:                                               ; preds = %35
  %41 = load ptr, ptr %6, align 8, !tbaa !8
  %42 = load ptr, ptr %9, align 8, !tbaa !15
  %43 = call i32 @ucbuf_getc(ptr noundef %41, ptr noundef %42)
  store i32 %43, ptr %10, align 4, !tbaa !4
  %44 = load i32, ptr %10, align 4, !tbaa !4
  %45 = icmp eq i32 %44, -1
  br i1 %45, label %46, label %47

46:                                               ; preds = %40
  store i32 -1, ptr %5, align 4
  store i32 1, ptr %12, align 4
  br label %72

47:                                               ; preds = %40
  %48 = load i32, ptr %10, align 4, !tbaa !4
  switch i32 %48, label %68 [
    i32 47, label %49
    i32 42, label %52
  ]

49:                                               ; preds = %47
  %50 = load ptr, ptr %6, align 8, !tbaa !8
  %51 = load ptr, ptr %9, align 8, !tbaa !15
  call void @seekUntilNewline(ptr noundef %50, ptr noundef null, ptr noundef %51)
  br label %71

52:                                               ; preds = %47
  %53 = load ptr, ptr %6, align 8, !tbaa !8
  %54 = load ptr, ptr %9, align 8, !tbaa !15
  %55 = call i32 @ucbuf_getc(ptr noundef %53, ptr noundef %54)
  store i32 %55, ptr %11, align 4, !tbaa !4
  %56 = load i32, ptr %11, align 4, !tbaa !4
  %57 = icmp eq i32 %56, 42
  br i1 %57, label %58, label %62

58:                                               ; preds = %52
  %59 = load ptr, ptr %6, align 8, !tbaa !8
  %60 = load ptr, ptr %8, align 8, !tbaa !11
  %61 = load ptr, ptr %9, align 8, !tbaa !15
  call void @seekUntilEndOfComment(ptr noundef %59, ptr noundef %60, ptr noundef %61)
  br label %67

62:                                               ; preds = %52
  %63 = load i32, ptr %11, align 4, !tbaa !4
  %64 = load ptr, ptr %6, align 8, !tbaa !8
  call void @ucbuf_ungetc(i32 noundef %63, ptr noundef %64)
  %65 = load ptr, ptr %6, align 8, !tbaa !8
  %66 = load ptr, ptr %9, align 8, !tbaa !15
  call void @seekUntilEndOfComment(ptr noundef %65, ptr noundef null, ptr noundef %66)
  br label %67

67:                                               ; preds = %62, %58
  br label %71

68:                                               ; preds = %47
  %69 = load i32, ptr %10, align 4, !tbaa !4
  %70 = load ptr, ptr %6, align 8, !tbaa !8
  call void @ucbuf_ungetc(i32 noundef %69, ptr noundef %70)
  store i32 47, ptr %5, align 4
  store i32 1, ptr %12, align 4
  br label %72

71:                                               ; preds = %67, %49
  br label %18

72:                                               ; preds = %68, %46, %38, %24, %16
  call void @llvm.lifetime.end.p0(i64 4, ptr %11) #4
  call void @llvm.lifetime.end.p0(i64 4, ptr %10) #4
  %73 = load i32, ptr %5, align 4
  ret i32 %73
}