; Function Attrs: nounwind uwtable
define internal fastcc i32 @getNextChar(ptr noundef %0, i8 noundef signext range(i8 0, 2) %1, ptr noundef %2, ptr noundef %3) unnamed_addr #1 {
  %5 = load i32, ptr %3, align 4, !tbaa !4
  %6 = icmp sgt i32 %5, 0
  br i1 %6, label %.loopexit, label %.preheader

.preheader:                                       ; preds = %4
  %7 = tail call i32 @ucbuf_getc(ptr noundef %0, ptr noundef nonnull %3) #5
  %8 = icmp eq i32 %7, -1
  br i1 %8, label %.loopexit, label %.lr.ph

.lr.ph:                                           ; preds = %.preheader
  %.not = icmp eq i8 %1, 0
  br label %9

9:                                                ; preds = %.lr.ph, %.backedge
  %10 = phi i32 [ %7, %.lr.ph ], [ %46, %.backedge ]
  br i1 %.not, label %isWhitespace.exit.thread, label %11

11:                                               ; preds = %9
  switch i32 %10, label %.loopexit [
    i32 10, label %12
    i32 8233, label %12
    i32 13, label %.backedge
    i32 32, label %.backedge
    i32 9, label %.backedge
    i32 65279, label %.backedge
    i32 47, label %15
  ]

12:                                               ; preds = %11, %11
  %13 = load i32, ptr @lineCount, align 4, !tbaa !4
  %14 = add nsw i32 %13, 1
  store i32 %14, ptr @lineCount, align 4, !tbaa !4
  br label %.backedge

isWhitespace.exit.thread:                         ; preds = %9
  %.not30 = icmp eq i32 %10, 47
  br i1 %.not30, label %15, label %.loopexit

15:                                               ; preds = %11, %isWhitespace.exit.thread
  %16 = tail call i32 @ucbuf_getc(ptr noundef %0, ptr noundef nonnull %3) #5
  switch i32 %16, label %45 [
    i32 -1, label %.loopexit
    i32 47, label %17
    i32 42, label %27
  ]

17:                                               ; preds = %15
  %18 = load i32, ptr %3, align 4, !tbaa !4
  %19 = icmp sgt i32 %18, 0
  br i1 %19, label %.backedge, label %.preheader.i

.preheader.i:                                     ; preds = %17, %24
  %20 = tail call i32 @ucbuf_getc(ptr noundef %0, ptr noundef nonnull %3) #5
  switch i32 %20, label %24 [
    i32 10, label %21
    i32 8233, label %21
    i32 13, label %.backedge
    i32 -1, label %.backedge
  ]

21:                                               ; preds = %.preheader.i, %.preheader.i
  %22 = load i32, ptr @lineCount, align 4, !tbaa !4
  %23 = add nsw i32 %22, 1
  store i32 %23, ptr @lineCount, align 4, !tbaa !4
  br label %.backedge

24:                                               ; preds = %.preheader.i
  %25 = load i32, ptr %3, align 4, !tbaa !4
  %26 = icmp eq i32 %25, 0
  br i1 %26, label %.preheader.i, label %.backedge, !llvm.loop !14

27:                                               ; preds = %15
  %28 = tail call i32 @ucbuf_getc(ptr noundef %0, ptr noundef nonnull %3) #5
  %29 = icmp eq i32 %28, 42
  br i1 %29, label %30, label %31

30:                                               ; preds = %27
  tail call fastcc void @seekUntilEndOfComment(ptr noundef %0, ptr noundef %2, ptr noundef nonnull %3)
  br label %.backedge

31:                                               ; preds = %27
  tail call void @ucbuf_ungetc(i32 noundef %28, ptr noundef %0) #5
  %32 = load i32, ptr %3, align 4, !tbaa !4
  %33 = icmp sgt i32 %32, 0
  br i1 %33, label %.backedge, label %34

34:                                               ; preds = %31
  %35 = load i32, ptr @lineCount, align 4, !tbaa !4
  br label %.split.us.i

.split.us.i:                                      ; preds = %42, %34
  %36 = tail call i32 @ucbuf_getc(ptr noundef %0, ptr noundef nonnull %3) #5
  switch i32 %36, label %42 [
    i32 42, label %37
    i32 10, label %isNewline.exit.thread.us.i
    i32 8233, label %isNewline.exit.thread.us.i
    i32 -1, label %.split23.us.i
  ]

37:                                               ; preds = %.split.us.i
  %38 = tail call i32 @ucbuf_getc(ptr noundef %0, ptr noundef nonnull %3) #5
  %.not.us.i = icmp eq i32 %38, 47
  br i1 %.not.us.i, label %.backedge, label %39

39:                                               ; preds = %37
  tail call void @ucbuf_ungetc(i32 noundef %38, ptr noundef %0) #5
  br label %42

isNewline.exit.thread.us.i:                       ; preds = %.split.us.i, %.split.us.i
  %40 = load i32, ptr @lineCount, align 4, !tbaa !4
  %41 = add nsw i32 %40, 1
  store i32 %41, ptr @lineCount, align 4, !tbaa !4
  br label %42

42:                                               ; preds = %isNewline.exit.thread.us.i, %39, %.split.us.i
  %43 = load i32, ptr %3, align 4, !tbaa !4
  %44 = icmp eq i32 %43, 0
  br i1 %44, label %.split.us.i, label %.backedge, !llvm.loop !16

.split23.us.i:                                    ; preds = %.split.us.i
  store i32 3, ptr %3, align 4, !tbaa !4
  tail call void (i32, ptr, ...) @error(i32 noundef %35, ptr noundef nonnull @.str.1) #5
  br label %.backedge

45:                                               ; preds = %15
  tail call void @ucbuf_ungetc(i32 noundef %16, ptr noundef %0) #5
  br label %.loopexit

.backedge:                                        ; preds = %37, %42, %.preheader.i, %.preheader.i, %24, %30, %17, %21, %31, %.split23.us.i, %12, %11, %11, %11, %11
  %46 = tail call i32 @ucbuf_getc(ptr noundef %0, ptr noundef nonnull %3) #5
  %47 = icmp eq i32 %46, -1
  br i1 %47, label %.loopexit, label %9

.loopexit:                                        ; preds = %.backedge, %isWhitespace.exit.thread, %15, %11, %.preheader, %4, %45
  %.0 = phi i32 [ 47, %45 ], [ -1, %4 ], [ -1, %.preheader ], [ -1, %.backedge ], [ %10, %isWhitespace.exit.thread ], [ %16, %15 ], [ %10, %11 ]
  ret i32 %.0
}